; Function Attrs: mustprogress nounwind uwtable
define internal void @_ZN12_GLOBAL__N_125BooleanStateWithSetVectorIPN4llvm8FunctionELb0EED2Ev(ptr noundef nonnull align 8 dereferenceable(56) %0) unnamed_addr #0 align 2 {
  store ptr getelementptr inbounds inrange(-16, 80) (i8, ptr @_ZTVN12_GLOBAL__N_125BooleanStateWithSetVectorIPN4llvm8FunctionELb0EEE, i64 16), ptr %0, align 8
  %2 = getelementptr inbounds i8, ptr %0, i64 40
  %3 = tail call noundef i64 @_ZNK4llvm15SmallVectorBaseIjE4sizeEv(ptr noundef nonnull align 8 dereferenceable(16) %2) #26
  %4 = load ptr, ptr %2, align 8
  %5 = getelementptr inbounds i8, ptr %0, i64 56
  %6 = icmp eq ptr %4, %5
  br i1 %6, label %_ZN4llvm9SetVectorIPNS_8FunctionENS_11SmallVectorIS2_Lj0EEENS_8DenseSetIS2_NS_12DenseMapInfoIS2_vEEEELj0EED2Ev.exit, label %7

7:                                                ; preds = %1
  tail call void @free(ptr noundef %4) #26
  br label %_ZN4llvm9SetVectorIPNS_8FunctionENS_11SmallVectorIS2_Lj0EEENS_8DenseSetIS2_NS_12DenseMapInfoIS2_vEEEELj0EED2Ev.exit

_ZN4llvm9SetVectorIPNS_8FunctionENS_11SmallVectorIS2_Lj0EEENS_8DenseSetIS2_NS_12DenseMapInfoIS2_vEEEELj0EED2Ev.exit: ; preds = %1, %7
  %8 = getelementptr inbounds nuw i8, ptr %0, i64 16
  %9 = load ptr, ptr %8, align 8
  %10 = getelementptr inbounds i8, ptr %0, i64 32
  %11 = load i32, ptr %10, align 8
  %12 = zext i32 %11 to i64
  %13 = shl nuw nsw i64 %12, 3
  tail call void @_ZN4llvm17deallocate_bufferEPvmm(ptr noundef %9, i64 noundef %13, i64 noundef 8) #26
  ret void
}